; Function Attrs: mustprogress nounwind uwtable
define noundef zeroext i1 @_ZN8proxygen23isValidCodecProtocolStrERKNSt7__cxx1112basic_stringIcSt11char_traitsIcESaIcEEE(ptr noundef nonnull align 8 dereferenceable(32) %protocolStr) local_unnamed_addr #5 {
entry:
  %call.i = tail call noundef i64 @_ZNKSt7__cxx1112basic_stringIcSt11char_traitsIcESaIcEE4sizeEv(ptr noundef nonnull align 8 dereferenceable(32) %protocolStr) #17
  %call1.i = tail call noundef i64 @_ZNKSt7__cxx1112basic_stringIcSt11char_traitsIcESaIcEE4sizeEv(ptr noundef nonnull align 8 dereferenceable(32) @_ZN8proxygen12_GLOBAL__N_18http_1_1B5cxx11E) #17
  %cmp.i = icmp eq i64 %call.i, %call1.i
  br i1 %cmp.i, label %land.rhs.i, label %lor.lhs.false

land.rhs.i:                                       ; preds = %entry
  %call2.i = tail call noundef ptr @_ZNKSt7__cxx1112basic_stringIcSt11char_traitsIcESaIcEE4dataEv(ptr noundef nonnull align 8 dereferenceable(32) %protocolStr) #17
  %call3.i = tail call noundef ptr @_ZNKSt7__cxx1112basic_stringIcSt11char_traitsIcESaIcEE4dataEv(ptr noundef nonnull align 8 dereferenceable(32) @_ZN8proxygen12_GLOBAL__N_18http_1_1B5cxx11E) #17
  %call4.i = tail call noundef i64 @_ZNKSt7__cxx1112basic_stringIcSt11char_traitsIcESaIcEE4sizeEv(ptr noundef nonnull align 8 dereferenceable(32) %protocolStr) #17
  %cmp.i.i = icmp eq i64 %call4.i, 0
  br i1 %cmp.i.i, label %lor.end, label %_ZSteqIcEN9__gnu_cxx11__enable_ifIXsr9__is_charIT_EE7__valueEbE6__typeERKNSt7__cxx1112basic_stringIS2_St11char_traitsIS2_ESaIS2_EEESC_.exit

_ZSteqIcEN9__gnu_cxx11__enable_ifIXsr9__is_charIT_EE7__valueEbE6__typeERKNSt7__cxx1112basic_stringIS2_St11char_traitsIS2_ESaIS2_EEESC_.exit: ; preds = %land.rhs.i
  %bcmp.i = tail call i32 @bcmp(ptr %call2.i, ptr %call3.i, i64 %call4.i)
  %0 = icmp eq i32 %bcmp.i, 0
  br i1 %0, label %lor.end, label %lor.lhs.false

lor.lhs.false:                                    ; preds = %entry, %_ZSteqIcEN9__gnu_cxx11__enable_ifIXsr9__is_charIT_EE7__valueEbE6__typeERKNSt7__cxx1112basic_stringIS2_St11char_traitsIS2_ESaIS2_EEESC_.exit
  %call.i6 = tail call noundef i64 @_ZNKSt7__cxx1112basic_stringIcSt11char_traitsIcESaIcEE4sizeEv(ptr noundef nonnull align 8 dereferenceable(32) %protocolStr) #17
  %call1.i7 = tail call noundef i64 @_ZNKSt7__cxx1112basic_stringIcSt11char_traitsIcESaIcEE4sizeEv(ptr noundef nonnull align 8 dereferenceable(32) @_ZN8proxygen5http215kProtocolStringB5cxx11E) #17
  %cmp.i8 = icmp eq i64 %call.i6, %call1.i7
  br i1 %cmp.i8, label %land.rhs.i9, label %lor.lhs.false2

land.rhs.i9:                                      ; preds = %lor.lhs.false
  %call2.i10 = tail call noundef ptr @_ZNKSt7__cxx1112basic_stringIcSt11char_traitsIcESaIcEE4dataEv(ptr noundef nonnull align 8 dereferenceable(32) %protocolStr) #17
  %call3.i11 = tail call noundef ptr @_ZNKSt7__cxx1112basic_stringIcSt11char_traitsIcESaIcEE4dataEv(ptr noundef nonnull align 8 dereferenceable(32) @_ZN8proxygen5http215kProtocolStringB5cxx11E) #17
  %call4.i12 = tail call noundef i64 @_ZNKSt7__cxx1112basic_stringIcSt11char_traitsIcESaIcEE4sizeEv(ptr noundef nonnull align 8 dereferenceable(32) %protocolStr) #17
  %cmp.i.i13 = icmp eq i64 %call4.i12, 0
  br i1 %cmp.i.i13, label %lor.end, label %_ZSteqIcEN9__gnu_cxx11__enable_ifIXsr9__is_charIT_EE7__valueEbE6__typeERKNSt7__cxx1112basic_stringIS2_St11char_traitsIS2_ESaIS2_EEESC_.exit16

_ZSteqIcEN9__gnu_cxx11__enable_ifIXsr9__is_charIT_EE7__valueEbE6__typeERKNSt7__cxx1112basic_stringIS2_St11char_traitsIS2_ESaIS2_EEESC_.exit16: ; preds = %land.rhs.i9
  %bcmp.i15 = tail call i32 @bcmp(ptr %call2.i10, ptr %call3.i11, i64 %call4.i12)
  %1 = icmp eq i32 %bcmp.i15, 0
  br i1 %1, label %lor.end, label %lor.lhs.false2

lor.lhs.false2:                                   ; preds = %lor.lhs.false, %_ZSteqIcEN9__gnu_cxx11__enable_ifIXsr9__is_charIT_EE7__valueEbE6__typeERKNSt7__cxx1112basic_stringIS2_St11char_traitsIS2_ESaIS2_EEESC_.exit16
  %call.i17 = tail call noundef i64 @_ZNKSt7__cxx1112basic_stringIcSt11char_traitsIcESaIcEE4sizeEv(ptr noundef nonnull align 8 dereferenceable(32) %protocolStr) #17
  %call1.i18 = tail call noundef i64 @_ZNKSt7__cxx1112basic_stringIcSt11char_traitsIcESaIcEE4sizeEv(ptr noundef nonnull align 8 dereferenceable(32) @_ZN8proxygen5http224kProtocolCleartextStringB5cxx11E) #17
  %cmp.i19 = icmp eq i64 %call.i17, %call1.i18
  br i1 %cmp.i19, label %land.rhs.i20, label %lor.lhs.false4

land.rhs.i20:                                     ; preds = %lor.lhs.false2
  %call2.i21 = tail call noundef ptr @_ZNKSt7__cxx1112basic_stringIcSt11char_traitsIcESaIcEE4dataEv(ptr noundef nonnull align 8 dereferenceable(32) %protocolStr) #17
  %call3.i22 = tail call noundef ptr @_ZNKSt7__cxx1112basic_stringIcSt11char_traitsIcESaIcEE4dataEv(ptr noundef nonnull align 8 dereferenceable(32) @_ZN8proxygen5http224kProtocolCleartextStringB5cxx11E) #17
  %call4.i23 = tail call noundef i64 @_ZNKSt7__cxx1112basic_stringIcSt11char_traitsIcESaIcEE4sizeEv(ptr noundef nonnull align 8 dereferenceable(32) %protocolStr) #17
  %cmp.i.i24 = icmp eq i64 %call4.i23, 0
  br i1 %cmp.i.i24, label %lor.end, label %_ZSteqIcEN9__gnu_cxx11__enable_ifIXsr9__is_charIT_EE7__valueEbE6__typeERKNSt7__cxx1112basic_stringIS2_St11char_traitsIS2_ESaIS2_EEESC_.exit27

_ZSteqIcEN9__gnu_cxx11__enable_ifIXsr9__is_charIT_EE7__valueEbE6__typeERKNSt7__cxx1112basic_stringIS2_St11char_traitsIS2_ESaIS2_EEESC_.exit27: ; preds = %land.rhs.i20
  %bcmp.i26 = tail call i32 @bcmp(ptr %call2.i21, ptr %call3.i22, i64 %call4.i23)
  %2 = icmp eq i32 %bcmp.i26, 0
  br i1 %2, label %lor.end, label %lor.lhs.false4

lor.lhs.false4:                                   ; preds = %lor.lhs.false2, %_ZSteqIcEN9__gnu_cxx11__enable_ifIXsr9__is_charIT_EE7__valueEbE6__typeERKNSt7__cxx1112basic_stringIS2_St11char_traitsIS2_ESaIS2_EEESC_.exit27
  %call.i28 = tail call noundef i64 @_ZNKSt7__cxx1112basic_stringIcSt11char_traitsIcESaIcEE4sizeEv(ptr noundef nonnull align 8 dereferenceable(32) %protocolStr) #17
  %call1.i29 = tail call noundef i64 @_ZNKSt7__cxx1112basic_stringIcSt11char_traitsIcESaIcEE4sizeEv(ptr noundef nonnull align 8 dereferenceable(32) @_ZN8proxygen12_GLOBAL__N_16http_2B5cxx11E) #17
  %cmp.i30 = icmp eq i64 %call.i28, %call1.i29
  br i1 %cmp.i30, label %land.rhs.i31, label %lor.lhs.false6

land.rhs.i31:                                     ; preds = %lor.lhs.false4
  %call2.i32 = tail call noundef ptr @_ZNKSt7__cxx1112basic_stringIcSt11char_traitsIcESaIcEE4dataEv(ptr noundef nonnull align 8 dereferenceable(32) %protocolStr) #17
  %call3.i33 = tail call noundef ptr @_ZNKSt7__cxx1112basic_stringIcSt11char_traitsIcESaIcEE4dataEv(ptr noundef nonnull align 8 dereferenceable(32) @_ZN8proxygen12_GLOBAL__N_16http_2B5cxx11E) #17
  %call4.i34 = tail call noundef i64 @_ZNKSt7__cxx1112basic_stringIcSt11char_traitsIcESaIcEE4sizeEv(ptr noundef nonnull align 8 dereferenceable(32) %protocolStr) #17
  %cmp.i.i35 = icmp eq i64 %call4.i34, 0
  br i1 %cmp.i.i35, label %lor.end, label %_ZSteqIcEN9__gnu_cxx11__enable_ifIXsr9__is_charIT_EE7__valueEbE6__typeERKNSt7__cxx1112basic_stringIS2_St11char_traitsIS2_ESaIS2_EEESC_.exit38

_ZSteqIcEN9__gnu_cxx11__enable_ifIXsr9__is_charIT_EE7__valueEbE6__typeERKNSt7__cxx1112basic_stringIS2_St11char_traitsIS2_ESaIS2_EEESC_.exit38: ; preds = %land.rhs.i31
  %bcmp.i37 = tail call i32 @bcmp(ptr %call2.i32, ptr %call3.i33, i64 %call4.i34)
  %3 = icmp eq i32 %bcmp.i37, 0
  br i1 %3, label %lor.end, label %lor.lhs.false6

lor.lhs.false6:                                   ; preds = %lor.lhs.false4, %_ZSteqIcEN9__gnu_cxx11__enable_ifIXsr9__is_charIT_EE7__valueEbE6__typeERKNSt7__cxx1112basic_stringIS2_St11char_traitsIS2_ESaIS2_EEESC_.exit38
  %call.i39 = tail call noundef i64 @_ZNKSt7__cxx1112basic_stringIcSt11char_traitsIcESaIcEE4sizeEv(ptr noundef nonnull align 8 dereferenceable(32) %protocolStr) #17
  %call1.i40 = tail call noundef i64 @_ZNKSt7__cxx1112basic_stringIcSt11char_traitsIcESaIcEE4sizeEv(ptr noundef nonnull align 8 dereferenceable(32) @_ZN8proxygen12_GLOBAL__N_12hqB5cxx11E) #17
  %cmp.i41 = icmp eq i64 %call.i39, %call1.i40
  br i1 %cmp.i41, label %land.rhs.i42, label %lor.rhs

land.rhs.i42:                                     ; preds = %lor.lhs.false6
  %call2.i43 = tail call noundef ptr @_ZNKSt7__cxx1112basic_stringIcSt11char_traitsIcESaIcEE4dataEv(ptr noundef nonnull align 8 dereferenceable(32) %protocolStr) #17
  %call3.i44 = tail call noundef ptr @_ZNKSt7__cxx1112basic_stringIcSt11char_traitsIcESaIcEE4dataEv(ptr noundef nonnull align 8 dereferenceable(32) @_ZN8proxygen12_GLOBAL__N_12hqB5cxx11E) #17
  %call4.i45 = tail call noundef i64 @_ZNKSt7__cxx1112basic_stringIcSt11char_traitsIcESaIcEE4sizeEv(ptr noundef nonnull align 8 dereferenceable(32) %protocolStr) #17
  %cmp.i.i46 = icmp eq i64 %call4.i45, 0
  br i1 %cmp.i.i46, label %lor.end, label %_ZSteqIcEN9__gnu_cxx11__enable_ifIXsr9__is_charIT_EE7__valueEbE6__typeERKNSt7__cxx1112basic_stringIS2_St11char_traitsIS2_ESaIS2_EEESC_.exit49

_ZSteqIcEN9__gnu_cxx11__enable_ifIXsr9__is_charIT_EE7__valueEbE6__typeERKNSt7__cxx1112basic_stringIS2_St11char_traitsIS2_ESaIS2_EEESC_.exit49: ; preds = %land.rhs.i42
  %bcmp.i48 = tail call i32 @bcmp(ptr %call2.i43, ptr %call3.i44, i64 %call4.i45)
  %4 = icmp eq i32 %bcmp.i48, 0
  br i1 %4, label %lor.end, label %lor.rhs

lor.rhs:                                          ; preds = %lor.lhs.false6, %_ZSteqIcEN9__gnu_cxx11__enable_ifIXsr9__is_charIT_EE7__valueEbE6__typeERKNSt7__cxx1112basic_stringIS2_St11char_traitsIS2_ESaIS2_EEESC_.exit49
  %call.i50 = tail call noundef i64 @_ZNKSt7__cxx1112basic_stringIcSt11char_traitsIcESaIcEE4sizeEv(ptr noundef nonnull align 8 dereferenceable(32) %protocolStr) #17
  %call1.i51 = tail call noundef i64 @_ZNKSt7__cxx1112basic_stringIcSt11char_traitsIcESaIcEE4sizeEv(ptr noundef nonnull align 8 dereferenceable(32) @_ZN8proxygen12_GLOBAL__N_111http_binaryB5cxx11E) #17
  %cmp.i52 = icmp eq i64 %call.i50, %call1.i51
  br i1 %cmp.i52, label %land.rhs.i53, label %lor.end

land.rhs.i53:                                     ; preds = %lor.rhs
  %call2.i54 = tail call noundef ptr @_ZNKSt7__cxx1112basic_stringIcSt11char_traitsIcESaIcEE4dataEv(ptr noundef nonnull align 8 dereferenceable(32) %protocolStr) #17
  %call3.i55 = tail call noundef ptr @_ZNKSt7__cxx1112basic_stringIcSt11char_traitsIcESaIcEE4dataEv(ptr noundef nonnull align 8 dereferenceable(32) @_ZN8proxygen12_GLOBAL__N_111http_binaryB5cxx11E) #17
  %call4.i56 = tail call noundef i64 @_ZNKSt7__cxx1112basic_stringIcSt11char_traitsIcESaIcEE4sizeEv(ptr noundef nonnull align 8 dereferenceable(32) %protocolStr) #17
  %cmp.i.i57 = icmp eq i64 %call4.i56, 0
  br i1 %cmp.i.i57, label %lor.end, label %if.end.i.i58

if.end.i.i58:                                     ; preds = %land.rhs.i53
  %bcmp.i59 = tail call i32 @bcmp(ptr %call2.i54, ptr %call3.i55, i64 %call4.i56)
  %5 = icmp eq i32 %bcmp.i59, 0
  br label %lor.end

lor.end:                                          ; preds = %land.rhs.i42, %land.rhs.i31, %land.rhs.i20, %land.rhs.i9, %land.rhs.i, %if.end.i.i58, %land.rhs.i53, %lor.rhs, %_ZSteqIcEN9__gnu_cxx11__enable_ifIXsr9__is_charIT_EE7__valueEbE6__typeERKNSt7__cxx1112basic_stringIS2_St11char_traitsIS2_ESaIS2_EEESC_.exit49, %_ZSteqIcEN9__gnu_cxx11__enable_ifIXsr9__is_charIT_EE7__valueEbE6__typeERKNSt7__cxx1112basic_stringIS2_St11char_traitsIS2_ESaIS2_EEESC_.exit38, %_ZSteqIcEN9__gnu_cxx11__enable_ifIXsr9__is_charIT_EE7__valueEbE6__typeERKNSt7__cxx1112basic_stringIS2_St11char_traitsIS2_ESaIS2_EEESC_.exit27, %_ZSteqIcEN9__gnu_cxx11__enable_ifIXsr9__is_charIT_EE7__valueEbE6__typeERKNSt7__cxx1112basic_stringIS2_St11char_traitsIS2_ESaIS2_EEESC_.exit16, %_ZSteqIcEN9__gnu_cxx11__enable_ifIXsr9__is_charIT_EE7__valueEbE6__typeERKNSt7__cxx1112basic_stringIS2_St11char_traitsIS2_ESaIS2_EEESC_.exit
  %6 = phi i1 [ true, %_ZSteqIcEN9__gnu_cxx11__enable_ifIXsr9__is_charIT_EE7__valueEbE6__typeERKNSt7__cxx1112basic_stringIS2_St11char_traitsIS2_ESaIS2_EEESC_.exit49 ], [ true, %_ZSteqIcEN9__gnu_cxx11__enable_ifIXsr9__is_charIT_EE7__valueEbE6__typeERKNSt7__cxx1112basic_stringIS2_St11char_traitsIS2_ESaIS2_EEESC_.exit38 ], [ true, %_ZSteqIcEN9__gnu_cxx11__enable_ifIXsr9__is_charIT_EE7__valueEbE6__typeERKNSt7__cxx1112basic_stringIS2_St11char_traitsIS2_ESaIS2_EEESC_.exit27 ], [ true, %_ZSteqIcEN9__gnu_cxx11__enable_ifIXsr9__is_charIT_EE7__valueEbE6__typeERKNSt7__cxx1112basic_stringIS2_St11char_traitsIS2_ESaIS2_EEESC_.exit16 ], [ true, %_ZSteqIcEN9__gnu_cxx11__enable_ifIXsr9__is_charIT_EE7__valueEbE6__typeERKNSt7__cxx1112basic_stringIS2_St11char_traitsIS2_ESaIS2_EEESC_.exit ], [ false, %lor.rhs ], [ %5, %if.end.i.i58 ], [ true, %land.rhs.i53 ], [ true, %land.rhs.i ], [ true, %land.rhs.i9 ], [ true, %land.rhs.i20 ], [ true, %land.rhs.i31 ], [ true, %land.rhs.i42 ]
  ret i1 %6
}